; Function Attrs: nounwind uwtable
define internal ptr @lxb_html_tokenizer_state_markup_declaration_cdata(ptr noundef %0, ptr noundef %1, ptr noundef %2) #1 {
  %4 = getelementptr inbounds i8, ptr %0, i64 104
  %5 = load ptr, ptr %4, align 8
  %6 = ptrtoint ptr %2 to i64
  %7 = ptrtoint ptr %1 to i64
  %8 = sub i64 %6, %7
  %9 = tail call ptr @lexbor_str_data_ncasecmp_first(ptr noundef %5, ptr noundef %1, i64 noundef %8) #5
  %10 = icmp eq ptr %9, null
  br i1 %10, label %11, label %15

11:                                               ; preds = %3
  %12 = getelementptr inbounds i8, ptr %0, i64 88
  %13 = load ptr, ptr %12, align 8
  %14 = tail call ptr @lxb_html_tokenizer_error_add(ptr noundef %13, ptr noundef %1, i32 noundef 18) #5
  store ptr @lxb_html_tokenizer_state_bogus_comment_before, ptr %0, align 8
  br label %52

15:                                               ; preds = %3
  %16 = load i8, ptr %9, align 1
  %17 = icmp eq i8 %16, 0
  br i1 %17, label %18, label %51

18:                                               ; preds = %15
  %19 = tail call i64 @lxb_html_tokenizer_current_namespace(ptr noundef nonnull %0) #5
  %20 = and i64 %19, -3
  %or.cond.not = icmp eq i64 %20, 0
  br i1 %or.cond.not, label %27, label %21

21:                                               ; preds = %18
  %22 = load ptr, ptr %4, align 8
  %23 = ptrtoint ptr %9 to i64
  %24 = ptrtoint ptr %22 to i64
  %25 = sub i64 %23, %24
  %26 = getelementptr inbounds i8, ptr %1, i64 %25
  store ptr @lxb_html_tokenizer_state_cdata_section_before, ptr %0, align 8
  br label %52

27:                                               ; preds = %18
  %28 = getelementptr inbounds i8, ptr %0, i64 136
  %29 = load ptr, ptr %28, align 8
  %30 = getelementptr inbounds i8, ptr %29, i64 6
  %31 = getelementptr inbounds i8, ptr %0, i64 144
  %32 = load ptr, ptr %31, align 8
  %33 = icmp ugt ptr %30, %32
  br i1 %33, label %34, label %48

34:                                               ; preds = %27
  %35 = getelementptr inbounds i8, ptr %0, i64 128
  %36 = load ptr, ptr %35, align 8
  %37 = ptrtoint ptr %36 to i64
  %38 = ptrtoint ptr %32 to i64
  %39 = add i64 %38, 4102
  %40 = sub i64 %39, %37
  %41 = tail call ptr @lexbor_realloc(ptr noundef %36, i64 noundef %40) #5
  store ptr %41, ptr %35, align 8
  %42 = icmp eq ptr %41, null
  br i1 %42, label %lxb_html_tokenizer_temp_append.exit, label %lxb_html_tokenizer_temp_realloc.exit.thread.i

lxb_html_tokenizer_temp_realloc.exit.thread.i:    ; preds = %34
  %43 = ptrtoint ptr %29 to i64
  %44 = sub i64 %43, %37
  %45 = getelementptr inbounds i8, ptr %41, i64 %44
  %46 = getelementptr inbounds i8, ptr %41, i64 %40
  store ptr %46, ptr %31, align 8
  br label %48

lxb_html_tokenizer_temp_append.exit:              ; preds = %34
  %47 = getelementptr inbounds i8, ptr %0, i64 232
  store i32 2, ptr %47, align 8
  br label %52

48:                                               ; preds = %27, %lxb_html_tokenizer_temp_realloc.exit.thread.i
  %49 = phi ptr [ %45, %lxb_html_tokenizer_temp_realloc.exit.thread.i ], [ %29, %27 ]
  tail call void @llvm.memcpy.p0.p0.i64(ptr noundef nonnull align 1 dereferenceable(6) %49, ptr noundef nonnull align 1 dereferenceable(6) @.str.5, i64 6, i1 false)
  %50 = getelementptr inbounds i8, ptr %49, i64 6
  store ptr %50, ptr %28, align 8
  store ptr @lxb_html_tokenizer_state_bogus_comment_before, ptr %0, align 8
  br label %52

51:                                               ; preds = %15
  store ptr %9, ptr %4, align 8
  br label %52

52:                                               ; preds = %lxb_html_tokenizer_temp_append.exit, %51, %48, %21, %11
  %.0 = phi ptr [ %1, %11 ], [ %26, %21 ], [ %1, %48 ], [ %2, %51 ], [ %2, %lxb_html_tokenizer_temp_append.exit ]
  ret ptr %.0
}